; Function Attrs: nofree norecurse nosync nounwind memory(argmem: readwrite) uwtable
define internal void @add_obmc32_c(ptr noundef captures(none) %0, ptr noundef readonly captures(none) %1, i32 noundef %2, ptr noundef readonly captures(none) %3, i32 noundef %4) #1 {
  %.not24 = icmp eq i32 %4, 0
  br i1 %.not24, label %._crit_edge, label %.preheader.lr.ph

.preheader.lr.ph:                                 ; preds = %5
  %6 = sext i32 %2 to i64
  br label %.preheader

.preheader:                                       ; preds = %.preheader.lr.ph, %30
  %.in = phi i32 [ %4, %.preheader.lr.ph ], [ %31, %30 ]
  %.02027 = phi ptr [ %3, %.preheader.lr.ph ], [ %34, %30 ]
  %.02126 = phi ptr [ %0, %.preheader.lr.ph ], [ %32, %30 ]
  %.02225 = phi ptr [ %1, %.preheader.lr.ph ], [ %33, %30 ]
  br label %7

7:                                                ; preds = %.preheader, %7
  %indvars.iv = phi i64 [ 0, %.preheader ], [ %indvars.iv.next, %7 ]
  %8 = getelementptr inbounds nuw i8, ptr %.02225, i64 %indvars.iv
  %9 = load i8, ptr %8, align 1, !tbaa !11
  %10 = zext i8 %9 to i16
  %11 = getelementptr inbounds nuw i8, ptr %.02027, i64 %indvars.iv
  %12 = load i8, ptr %11, align 1, !tbaa !11
  %13 = zext i8 %12 to i16
  %14 = mul nuw i16 %13, %10
  %15 = getelementptr inbounds nuw i16, ptr %.02126, i64 %indvars.iv
  %16 = load i16, ptr %15, align 2, !tbaa !17
  %17 = add i16 %14, %16
  store i16 %17, ptr %15, align 2, !tbaa !17
  %18 = or disjoint i64 %indvars.iv, 1
  %19 = getelementptr inbounds nuw i8, ptr %.02225, i64 %18
  %20 = load i8, ptr %19, align 1, !tbaa !11
  %21 = zext i8 %20 to i16
  %22 = getelementptr inbounds nuw i8, ptr %.02027, i64 %18
  %23 = load i8, ptr %22, align 1, !tbaa !11
  %24 = zext i8 %23 to i16
  %25 = mul nuw i16 %24, %21
  %26 = getelementptr inbounds nuw i16, ptr %.02126, i64 %18
  %27 = load i16, ptr %26, align 2, !tbaa !17
  %28 = add i16 %25, %27
  store i16 %28, ptr %26, align 2, !tbaa !17
  %indvars.iv.next = add nuw nsw i64 %indvars.iv, 2
  %29 = icmp samesign ult i64 %indvars.iv, 30
  br i1 %29, label %7, label %30, !llvm.loop !33

30:                                               ; preds = %7
  %31 = add nsw i32 %.in, -1
  %32 = getelementptr inbounds i16, ptr %.02126, i64 %6
  %33 = getelementptr inbounds i8, ptr %.02225, i64 %6
  %34 = getelementptr inbounds nuw i8, ptr %.02027, i64 32
  %.not = icmp eq i32 %31, 0
  br i1 %.not, label %._crit_edge, label %.preheader, !llvm.loop !34

._crit_edge:                                      ; preds = %30, %5
  ret void
}